; Function Attrs: mustprogress uwtable
define void @_ZN10open_spiel13markov_soccer17MarkovSoccerState14DoApplyActionsERKSt6vectorIlSaIlEE(ptr nocapture noundef nonnull align 8 dereferenceable(144) %0, ptr nocapture noundef nonnull readonly align 8 dereferenceable(24) %1) unnamed_addr #3 align 2 personality ptr @__gxx_personality_v0 {
  %3 = alloca i64, align 8
  %4 = alloca i32, align 4
  %5 = alloca %"class.std::__cxx11::basic_string", align 8
  %6 = alloca i32, align 4
  %7 = alloca i32, align 4
  %8 = alloca i32, align 4
  %9 = alloca %"class.std::__cxx11::basic_string", align 8
  %10 = alloca i32, align 4
  %11 = getelementptr inbounds nuw i8, ptr %1, i64 8
  %12 = load ptr, ptr %11, align 8
  %13 = load ptr, ptr %1, align 8
  %14 = ptrtoint ptr %12 to i64
  %15 = ptrtoint ptr %13 to i64
  %16 = sub i64 %14, %15
  %17 = ashr exact i64 %16, 3
  store i64 %17, ptr %3, align 8
  store i32 2, ptr %4, align 4
  %18 = icmp eq i64 %16, 16
  br i1 %18, label %23, label %19

19:                                               ; preds = %2
  store i32 166, ptr %6, align 4
  call void @_ZN10open_spiel8internal11SpielStrCatIJRA146_KcRA2_S2_iS6_RA18_S2_RA14_S2_RA4_S2_RmRA7_S2_RiEEENSt7__cxx1112basic_stringIcSt11char_traitsIcESaIcEEEDpOT_(ptr dead_on_unwind nonnull writable sret(%"class.std::__cxx11::basic_string") align 8 %5, ptr noundef nonnull align 1 dereferenceable(146) @.str.6, ptr noundef nonnull align 1 dereferenceable(2) @.str.7, ptr noundef nonnull align 4 dereferenceable(4) %6, ptr noundef nonnull align 1 dereferenceable(2) @.str.8, ptr noundef nonnull align 1 dereferenceable(18) @.str.28, ptr noundef nonnull align 1 dereferenceable(14) @.str.29, ptr noundef nonnull align 1 dereferenceable(4) @.str.11, ptr noundef nonnull align 8 dereferenceable(8) %3, ptr noundef nonnull align 1 dereferenceable(7) @.str.30, ptr noundef nonnull align 4 dereferenceable(4) %4)
  invoke void @_ZN10open_spiel15SpielFatalErrorERKNSt7__cxx1112basic_stringIcSt11char_traitsIcESaIcEEE(ptr noundef nonnull align 8 dereferenceable(32) %5) #25
          to label %20 unwind label %21

20:                                               ; preds = %19
  unreachable

21:                                               ; preds = %19
  %22 = landingpad { ptr, i32 }
          cleanup
  br label %40

23:                                               ; preds = %2
  %24 = getelementptr inbounds nuw i8, ptr %0, i64 76
  %25 = load i32, ptr %24, align 4
  store i32 %25, ptr %7, align 4
  store i32 -2, ptr %8, align 4
  %26 = icmp eq i32 %25, -2
  br i1 %26, label %31, label %27

27:                                               ; preds = %23
  store i32 167, ptr %10, align 4
  call void @_ZN10open_spiel8internal11SpielStrCatIJRA146_KcRA2_S2_iS6_RA37_S2_RA13_S2_RA4_S2_RiRA27_S2_RNS_8PlayerIdEEEENSt7__cxx1112basic_stringIcSt11char_traitsIcESaIcEEEDpOT_(ptr dead_on_unwind nonnull writable sret(%"class.std::__cxx11::basic_string") align 8 %9, ptr noundef nonnull align 1 dereferenceable(146) @.str.6, ptr noundef nonnull align 1 dereferenceable(2) @.str.7, ptr noundef nonnull align 4 dereferenceable(4) %10, ptr noundef nonnull align 1 dereferenceable(2) @.str.8, ptr noundef nonnull align 1 dereferenceable(37) @.str.31, ptr noundef nonnull align 1 dereferenceable(13) @.str.32, ptr noundef nonnull align 1 dereferenceable(4) @.str.11, ptr noundef nonnull align 4 dereferenceable(4) %7, ptr noundef nonnull align 1 dereferenceable(27) @.str.33, ptr noundef nonnull align 4 dereferenceable(4) %8)
  invoke void @_ZN10open_spiel15SpielFatalErrorERKNSt7__cxx1112basic_stringIcSt11char_traitsIcESaIcEEE(ptr noundef nonnull align 8 dereferenceable(32) %9) #25
          to label %28 unwind label %29

28:                                               ; preds = %27
  unreachable

29:                                               ; preds = %27
  %30 = landingpad { ptr, i32 }
          cleanup
  br label %40

31:                                               ; preds = %23
  %32 = load i64, ptr %13, align 8
  %33 = trunc i64 %32 to i32
  %34 = getelementptr inbounds nuw i8, ptr %0, i64 112
  store i32 %33, ptr %34, align 8
  %35 = load ptr, ptr %1, align 8
  %36 = getelementptr inbounds i8, ptr %35, i64 8
  %37 = load i64, ptr %36, align 8
  %38 = trunc i64 %37 to i32
  %39 = getelementptr inbounds i8, ptr %0, i64 116
  store i32 %38, ptr %39, align 4
  store i32 -1, ptr %24, align 4
  ret void

40:                                               ; preds = %29, %21
  %.sink = phi ptr [ %9, %29 ], [ %5, %21 ]
  %.pn = phi { ptr, i32 } [ %30, %29 ], [ %22, %21 ]
  call void @_ZNSt7__cxx1112basic_stringIcSt11char_traitsIcESaIcEED1Ev(ptr noundef nonnull align 8 dereferenceable(32) %.sink) #26
  resume { ptr, i32 } %.pn
}